target datalayout = "e-m:e-p270:32:32-p271:32:32-p272:64:64-i64:64-i128:128-f80:128-n8:16:32:64-S128"
target triple = "x86_64-pc-linux-gnu"

%struct.H5D_t = type { %struct.H5O_loc_t, %struct.H5G_name_t, ptr }
%struct.H5O_loc_t = type { ptr, i64, i8 }
%struct.H5G_name_t = type { ptr, ptr, i32 }
%struct.H5D_shared_t = type { i64, i8, i64, ptr, ptr, i64, i64, %struct.H5D_dcpl_cache_t, %struct.H5O_layout_t, i8, i32, [32 x i64], [32 x i64], [32 x i64], %struct.anon.6, %struct.H5D_append_flush_t, ptr, ptr }
%struct.H5D_dcpl_cache_t = type { %struct.H5O_fill_t, %struct.H5O_pline_t, %struct.H5O_efl_t }
%struct.H5O_fill_t = type { %struct.H5O_shared_t, i32, ptr, i64, ptr, i32, i32, i8 }
%struct.H5O_shared_t = type { i32, ptr, i32, %union.anon }
%union.anon = type { %struct.H5O_mesg_loc_t }
%struct.H5O_mesg_loc_t = type { i32, i64 }
%struct.H5O_pline_t = type { %struct.H5O_shared_t, i32, i64, i64, ptr }
%struct.H5O_efl_t = type { i64, i64, i64, ptr }
%struct.H5O_layout_t = type { i32, i32, ptr, %union.anon.0, %struct.H5O_storage_t }
%union.anon.0 = type { %struct.H5O_layout_chunk_t }
%struct.H5O_layout_chunk_t = type { i32, i8, i32, [33 x i32], i32, i32, i64, i64, [33 x i64], [33 x i64], [33 x i64], [33 x i64], %union.anon.1 }
%union.anon.1 = type { %struct.H5O_layout_chunk_earray_t }
%struct.H5O_layout_chunk_earray_t = type { %struct.anon.2, i32, [33 x i32], [33 x i64], [33 x i64] }
%struct.anon.2 = type { i8, i8, i8, i8, i8 }
%struct.H5O_storage_t = type { i32, %union.anon.4 }
%union.anon.4 = type { %struct.H5O_storage_virtual_t }
%struct.H5O_storage_virtual_t = type { %struct.H5HG_t, i64, ptr, i64, [32 x i64], i32, i64, i64, i64, i8 }
%struct.H5HG_t = type { i64, i64 }
%struct.anon.6 = type { %struct.H5D_rdcdc_t, %struct.H5D_rdcc_t }
%struct.H5D_rdcdc_t = type { ptr, i64, i64, i64, i8 }
%struct.H5D_rdcc_t = type { %struct.anon.7, i64, i64, double, ptr, ptr, ptr, i64, i32, %struct.H5D_chunk_cached_t, ptr, ptr, ptr, ptr, [32 x i64], [32 x i64], [32 x i32] }
%struct.anon.7 = type { i32, i32, i32, i32 }
%struct.H5D_chunk_cached_t = type { i8, [33 x i64], i64, i32, i64, i32 }
%struct.H5D_append_flush_t = type { i32, [32 x i64], ptr, ptr }
%struct.H5O_storage_compact_t = type { i8, i64, ptr }

@H5D_init_g = external global i8, align 1
@H5_libterm_g = external global i8, align 1
@.str = private unnamed_addr constant [104 x i8] c"generated/home/dtcxzyw/WorkSpace/Projects/compilers/llvm-opt-benchmark/bench/hdf5/hdf5/src/H5Dcompact.c\00", align 1
@H5E_CANTINIT_g = external global i64, align 8
@__func__.H5D__compact_flush = private unnamed_addr constant [19 x i8] c"H5D__compact_flush\00", align 1
@H5E_FILE_g = external global i64, align 8
@.str.26 = private unnamed_addr constant [32 x i8] c"unable to update layout message\00", align 1

; Function Attrs: nounwind uwtable
define internal i32 @H5D__compact_flush(ptr noundef %0) #0 {
  %2 = alloca ptr, align 8
  %3 = alloca i32, align 4
  %4 = alloca i8, align 1
  store ptr %0, ptr %2, align 8, !tbaa !8
  call void @llvm.lifetime.start.p0(i64 4, ptr %3) #6
  store i32 0, ptr %3, align 4, !tbaa !10
  call void @llvm.lifetime.start.p0(i64 1, ptr %4) #6
  store i8 0, ptr %4, align 1, !tbaa !12
  %5 = load i8, ptr @H5D_init_g, align 1, !tbaa !12, !range !14, !noundef !15
  %6 = trunc i8 %5 to i1
  br i1 %6, label %11, label %7

7:                                                ; preds = %1
  %8 = load i8, ptr @H5_libterm_g, align 1, !tbaa !12, !range !14, !noundef !15
  %9 = trunc i8 %8 to i1
  %10 = xor i1 %9, true
  br label %11

11:                                               ; preds = %7, %1
  %12 = phi i1 [ true, %1 ], [ %10, %7 ]
  %13 = xor i1 %12, true
  %14 = xor i1 %13, true
  %15 = zext i1 %14 to i32
  %16 = sext i32 %15 to i64
  %17 = call i64 @llvm.expect.i64(i64 %16, i64 1)
  %18 = icmp ne i64 %17, 0
  br i1 %18, label %19, label %74

19:                                               ; preds = %11
  %20 = load ptr, ptr %2, align 8, !tbaa !8
  %21 = getelementptr inbounds nuw %struct.H5D_t, ptr %20, i32 0, i32 2
  %22 = load ptr, ptr %21, align 8, !tbaa !16
  %23 = getelementptr inbounds nuw %struct.H5D_shared_t, ptr %22, i32 0, i32 8
  %24 = getelementptr inbounds nuw %struct.H5O_layout_t, ptr %23, i32 0, i32 4
  %25 = getelementptr inbounds nuw %struct.H5O_storage_t, ptr %24, i32 0, i32 1
  %26 = getelementptr inbounds nuw %struct.H5O_storage_compact_t, ptr %25, i32 0, i32 0
  %27 = load i8, ptr %26, align 8, !tbaa !54, !range !14, !noundef !15
  %28 = trunc i8 %27 to i1
  br i1 %28, label %29, label %72

29:                                               ; preds = %19
  %30 = load ptr, ptr %2, align 8, !tbaa !8
  %31 = getelementptr inbounds nuw %struct.H5D_t, ptr %30, i32 0, i32 2
  %32 = load ptr, ptr %31, align 8, !tbaa !16
  %33 = getelementptr inbounds nuw %struct.H5D_shared_t, ptr %32, i32 0, i32 8
  %34 = getelementptr inbounds nuw %struct.H5O_layout_t, ptr %33, i32 0, i32 4
  %35 = getelementptr inbounds nuw %struct.H5O_storage_t, ptr %34, i32 0, i32 1
  %36 = getelementptr inbounds nuw %struct.H5O_storage_compact_t, ptr %35, i32 0, i32 0
  store i8 0, ptr %36, align 8, !tbaa !54
  %37 = load ptr, ptr %2, align 8, !tbaa !8
  %38 = getelementptr inbounds nuw %struct.H5D_t, ptr %37, i32 0, i32 0
  %39 = load ptr, ptr %2, align 8, !tbaa !8
  %40 = getelementptr inbounds nuw %struct.H5D_t, ptr %39, i32 0, i32 2
  %41 = load ptr, ptr %40, align 8, !tbaa !16
  %42 = getelementptr inbounds nuw %struct.H5D_shared_t, ptr %41, i32 0, i32 8
  %43 = call i32 @H5O_msg_write(ptr noundef %38, i32 noundef 8, i32 noundef 0, i32 noundef 1, ptr noundef %42)
  %44 = icmp slt i32 %43, 0
  br i1 %44, label %45, label %71

45:                                               ; preds = %29
  %46 = load ptr, ptr %2, align 8, !tbaa !8
  %47 = getelementptr inbounds nuw %struct.H5D_t, ptr %46, i32 0, i32 2
  %48 = load ptr, ptr %47, align 8, !tbaa !16
  %49 = getelementptr inbounds nuw %struct.H5D_shared_t, ptr %48, i32 0, i32 8
  %50 = getelementptr inbounds nuw %struct.H5O_layout_t, ptr %49, i32 0, i32 4
  %51 = getelementptr inbounds nuw %struct.H5O_storage_t, ptr %50, i32 0, i32 1
  %52 = getelementptr inbounds nuw %struct.H5O_storage_compact_t, ptr %51, i32 0, i32 0
  store i8 1, ptr %52, align 8, !tbaa !54
  br label %53

53:                                               ; preds = %45
  br label %54

54:                                               ; preds = %53
  br label %55

55:                                               ; preds = %54
  %56 = load i64, ptr @H5E_FILE_g, align 8, !tbaa !49
  %57 = load i64, ptr @H5E_CANTINIT_g, align 8, !tbaa !49
  %58 = call i32 (ptr, ptr, i32, i64, i64, ptr, ...) @H5E_printf_stack(ptr noundef @.str, ptr noundef @__func__.H5D__compact_flush, i32 noundef 487, i64 noundef %56, i64 noundef %57, ptr noundef @.str.26)
  br label %59

59:                                               ; preds = %55
  br label %60

60:                                               ; preds = %59
  store i8 1, ptr %4, align 1, !tbaa !12
  %61 = load i8, ptr %4, align 1, !tbaa !12, !range !14, !noundef !15
  %62 = trunc i8 %61 to i1
  %63 = zext i1 %62 to i8
  store i8 %63, ptr %4, align 1, !tbaa !12
  br label %64

64:                                               ; preds = %60
  br label %65

65:                                               ; preds = %64
  br label %66

66:                                               ; preds = %65
  store i32 -1, ptr %3, align 4, !tbaa !10
  br label %73

67:                                               ; No predecessors!
  br label %68

68:                                               ; preds = %67
  br label %69

69:                                               ; preds = %68
  br label %70

70:                                               ; preds = %69
  br label %71

71:                                               ; preds = %70, %29
  br label %72

72:                                               ; preds = %71, %19
  br label %73

73:                                               ; preds = %72, %66
  br label %74

74:                                               ; preds = %73, %11
  %75 = load i32, ptr %3, align 4, !tbaa !10
  call void @llvm.lifetime.end.p0(i64 1, ptr %4) #6
  call void @llvm.lifetime.end.p0(i64 4, ptr %3) #6
  ret i32 %75
}