; Function Attrs: nounwind uwtable
define internal range(i32 -1, 1) i32 @H5D__compact_flush(ptr noundef %0) #0 {
  %2 = load i8, ptr @H5D_init_g, align 1, !tbaa !3, !range !7, !noundef !8
  %3 = trunc nuw i8 %2 to i1
  %4 = load i8, ptr @H5_libterm_g, align 1, !range !7
  %5 = trunc nuw i8 %4 to i1
  %6 = xor i1 %5, true
  %7 = select i1 %3, i1 true, i1 %6
  br i1 %7, label %8, label %25, !prof !9

8:                                                ; preds = %1
  %9 = getelementptr inbounds nuw i8, ptr %0, i64 48
  %10 = load ptr, ptr %9, align 8, !tbaa !10
  %11 = getelementptr inbounds nuw i8, ptr %10, i64 2168
  %12 = load i8, ptr %11, align 8, !tbaa !51, !range !7, !noundef !8
  %13 = trunc nuw i8 %12 to i1
  br i1 %13, label %14, label %25

14:                                               ; preds = %8
  store i8 0, ptr %11, align 8, !tbaa !51
  %15 = load ptr, ptr %9, align 8, !tbaa !10
  %16 = getelementptr inbounds nuw i8, ptr %15, i64 248
  %17 = tail call i32 @H5O_msg_write(ptr noundef nonnull %0, i32 noundef 8, i32 noundef 0, i32 noundef 1, ptr noundef nonnull %16) #8
  %18 = icmp slt i32 %17, 0
  br i1 %18, label %19, label %25

19:                                               ; preds = %14
  %20 = load ptr, ptr %9, align 8, !tbaa !10
  %21 = getelementptr inbounds nuw i8, ptr %20, i64 2168
  store i8 1, ptr %21, align 8, !tbaa !51
  %22 = load i64, ptr @H5E_FILE_g, align 8, !tbaa !48
  %23 = load i64, ptr @H5E_CANTINIT_g, align 8, !tbaa !48
  %24 = tail call i32 (ptr, ptr, i32, i64, i64, ptr, ...) @H5E_printf_stack(ptr noundef nonnull @.str, ptr noundef nonnull @__func__.H5D__compact_flush, i32 noundef 487, i64 noundef %22, i64 noundef %23, ptr noundef nonnull @.str.26) #8
  br label %25

25:                                               ; preds = %19, %14, %8, %1
  %.0 = phi i32 [ -1, %19 ], [ 0, %14 ], [ 0, %8 ], [ 0, %1 ]
  ret i32 %.0
}